target datalayout = "e-m:e-p270:32:32-p271:32:32-p272:64:64-i64:64-i128:128-f80:128-n8:16:32:64-S128"
target triple = "x86_64-pc-linux-gnu"

%struct.HWContextType = type { i32, ptr, ptr, i64, i64, i64, ptr, ptr, ptr, ptr, ptr, ptr, ptr, ptr, ptr, ptr, ptr, ptr, ptr, ptr, ptr }
%struct.FFHWFramesContext = type { %struct.AVHWFramesContext, ptr, ptr, ptr, i32 }
%struct.AVHWFramesContext = type { ptr, ptr, ptr, ptr, ptr, ptr, ptr, i32, i32, i32, i32, i32 }

; Function Attrs: nounwind uwtable
define internal void @hwframe_ctx_free(ptr noundef %0, ptr noundef %1) #0 {
  %3 = alloca ptr, align 8
  %4 = alloca ptr, align 8
  %5 = alloca ptr, align 8
  %6 = alloca ptr, align 8
  store ptr %0, ptr %3, align 8, !tbaa !34
  store ptr %1, ptr %4, align 8, !tbaa !4
  call void @llvm.lifetime.start.p0(i64 8, ptr %5) #5
  %7 = load ptr, ptr %4, align 8, !tbaa !4
  store ptr %7, ptr %5, align 8, !tbaa !41
  call void @llvm.lifetime.start.p0(i64 8, ptr %6) #5
  %8 = load ptr, ptr %5, align 8, !tbaa !41
  %9 = getelementptr inbounds nuw %struct.FFHWFramesContext, ptr %8, i32 0, i32 0
  store ptr %9, ptr %6, align 8, !tbaa !43
  %10 = load ptr, ptr %5, align 8, !tbaa !41
  %11 = getelementptr inbounds nuw %struct.FFHWFramesContext, ptr %10, i32 0, i32 2
  %12 = load ptr, ptr %11, align 8, !tbaa !56
  %13 = icmp ne ptr %12, null
  br i1 %13, label %14, label %17

14:                                               ; preds = %2
  %15 = load ptr, ptr %5, align 8, !tbaa !41
  %16 = getelementptr inbounds nuw %struct.FFHWFramesContext, ptr %15, i32 0, i32 2
  call void @av_buffer_pool_uninit(ptr noundef %16)
  br label %17

17:                                               ; preds = %14, %2
  %18 = load ptr, ptr %5, align 8, !tbaa !41
  %19 = getelementptr inbounds nuw %struct.FFHWFramesContext, ptr %18, i32 0, i32 1
  %20 = load ptr, ptr %19, align 8, !tbaa !54
  %21 = getelementptr inbounds nuw %struct.HWContextType, ptr %20, i32 0, i32 12
  %22 = load ptr, ptr %21, align 8, !tbaa !57
  %23 = icmp ne ptr %22, null
  br i1 %23, label %24, label %31

24:                                               ; preds = %17
  %25 = load ptr, ptr %5, align 8, !tbaa !41
  %26 = getelementptr inbounds nuw %struct.FFHWFramesContext, ptr %25, i32 0, i32 1
  %27 = load ptr, ptr %26, align 8, !tbaa !54
  %28 = getelementptr inbounds nuw %struct.HWContextType, ptr %27, i32 0, i32 12
  %29 = load ptr, ptr %28, align 8, !tbaa !57
  %30 = load ptr, ptr %6, align 8, !tbaa !43
  call void %29(ptr noundef %30)
  br label %31

31:                                               ; preds = %24, %17
  %32 = load ptr, ptr %6, align 8, !tbaa !43
  %33 = getelementptr inbounds nuw %struct.AVHWFramesContext, ptr %32, i32 0, i32 4
  %34 = load ptr, ptr %33, align 8, !tbaa !58
  %35 = icmp ne ptr %34, null
  br i1 %35, label %36, label %41

36:                                               ; preds = %31
  %37 = load ptr, ptr %6, align 8, !tbaa !43
  %38 = getelementptr inbounds nuw %struct.AVHWFramesContext, ptr %37, i32 0, i32 4
  %39 = load ptr, ptr %38, align 8, !tbaa !58
  %40 = load ptr, ptr %6, align 8, !tbaa !43
  call void %39(ptr noundef %40)
  br label %41

41:                                               ; preds = %36, %31
  %42 = load ptr, ptr %5, align 8, !tbaa !41
  %43 = getelementptr inbounds nuw %struct.FFHWFramesContext, ptr %42, i32 0, i32 3
  call void @av_buffer_unref(ptr noundef %43)
  %44 = load ptr, ptr %6, align 8, !tbaa !43
  %45 = getelementptr inbounds nuw %struct.AVHWFramesContext, ptr %44, i32 0, i32 1
  call void @av_buffer_unref(ptr noundef %45)
  %46 = load ptr, ptr %6, align 8, !tbaa !43
  %47 = getelementptr inbounds nuw %struct.AVHWFramesContext, ptr %46, i32 0, i32 3
  call void @av_freep(ptr noundef %47)
  call void @av_freep(ptr noundef %6)
  call void @llvm.lifetime.end.p0(i64 8, ptr %6) #5
  call void @llvm.lifetime.end.p0(i64 8, ptr %5) #5
  ret void
}