; Function Attrs: nounwind uwtable
define internal void @hwframe_ctx_free(ptr readnone captures(none) %0, ptr noundef %1) #5 {
  %3 = alloca ptr, align 8
  call void @llvm.lifetime.start.p0(i64 8, ptr nonnull %3) #11
  store ptr %1, ptr %3, align 8, !tbaa !37
  %4 = getelementptr inbounds nuw i8, ptr %1, i64 88
  %5 = load ptr, ptr %4, align 8, !tbaa !50
  %.not = icmp eq ptr %5, null
  br i1 %.not, label %7, label %6

6:                                                ; preds = %2
  tail call void @av_buffer_pool_uninit(ptr noundef nonnull %4) #11
  br label %7

7:                                                ; preds = %6, %2
  %8 = getelementptr inbounds nuw i8, ptr %1, i64 80
  %9 = load ptr, ptr %8, align 8, !tbaa !48
  %10 = getelementptr inbounds nuw i8, ptr %9, i64 96
  %11 = load ptr, ptr %10, align 8, !tbaa !51
  %.not8 = icmp eq ptr %11, null
  br i1 %.not8, label %13, label %12

12:                                               ; preds = %7
  tail call void %11(ptr noundef nonnull %1) #11
  br label %13

13:                                               ; preds = %12, %7
  %14 = getelementptr inbounds nuw i8, ptr %1, i64 32
  %15 = load ptr, ptr %14, align 8, !tbaa !52
  %.not9 = icmp eq ptr %15, null
  br i1 %.not9, label %17, label %16

16:                                               ; preds = %13
  tail call void %15(ptr noundef nonnull %1) #11
  br label %17

17:                                               ; preds = %16, %13
  %18 = getelementptr inbounds nuw i8, ptr %1, i64 96
  tail call void @av_buffer_unref(ptr noundef nonnull %18) #11
  %19 = getelementptr inbounds nuw i8, ptr %1, i64 8
  tail call void @av_buffer_unref(ptr noundef nonnull %19) #11
  %20 = getelementptr inbounds nuw i8, ptr %1, i64 24
  tail call void @av_freep(ptr noundef nonnull %20) #11
  call void @av_freep(ptr noundef nonnull %3) #11
  call void @llvm.lifetime.end.p0(i64 8, ptr nonnull %3) #11
  ret void
}